target datalayout = "e-m:e-p270:32:32-p271:32:32-p272:64:64-i64:64-i128:128-f80:128-n8:16:32:64-S128"
target triple = "x86_64-pc-linux-gnu"

%"class.icu_77::FormattedValueFieldPositionIteratorImpl" = type { %"class.icu_77::FormattedValue", %"class.icu_77::UnicodeString", %"class.icu_77::UVector32" }
%"class.icu_77::FormattedValue" = type { ptr }
%"class.icu_77::UnicodeString" = type { %"class.icu_77::Replaceable", %"union.icu_77::UnicodeString::StackBufferOrFields" }
%"class.icu_77::Replaceable" = type { %"class.icu_77::UObject" }
%"class.icu_77::UObject" = type { ptr }
%"union.icu_77::UnicodeString::StackBufferOrFields" = type { %struct.anon.0, [32 x i8] }
%struct.anon.0 = type { i16, i32, i32, ptr }
%"class.icu_77::UVector32" = type { %"class.icu_77::UObject", i32, i32, i32, ptr }
%"class.icu_77::ConstrainedFieldPosition" = type <{ i64, i32, i32, i32, i32, i8, [7 x i8] }>

; Function Attrs: inlinehint mustprogress nounwind uwtable
define linkonce_odr noundef i32 @_ZNK6icu_779UVector3210elementAtiEi(ptr noundef nonnull align 8 dereferenceable(32) %0, i32 noundef %1) #2 comdat align 2 {
  %3 = alloca ptr, align 8
  %4 = alloca i32, align 4
  store ptr %0, ptr %3, align 8, !tbaa !47
  store i32 %1, ptr %4, align 4, !tbaa !14
  %5 = load ptr, ptr %3, align 8
  %6 = load i32, ptr %4, align 4, !tbaa !14
  %7 = icmp sge i32 %6, 0
  br i1 %7, label %8, label %25

8:                                                ; preds = %2
  %9 = getelementptr inbounds nuw %"class.icu_77::UVector32", ptr %5, i32 0, i32 1
  %10 = load i32, ptr %9, align 8, !tbaa !49
  %11 = icmp sgt i32 %10, 0
  br i1 %11, label %12, label %25

12:                                               ; preds = %8
  %13 = getelementptr inbounds nuw %"class.icu_77::UVector32", ptr %5, i32 0, i32 1
  %14 = load i32, ptr %13, align 8, !tbaa !49
  %15 = load i32, ptr %4, align 4, !tbaa !14
  %16 = sub nsw i32 %14, %15
  %17 = icmp sgt i32 %16, 0
  br i1 %17, label %18, label %25

18:                                               ; preds = %12
  %19 = getelementptr inbounds nuw %"class.icu_77::UVector32", ptr %5, i32 0, i32 4
  %20 = load ptr, ptr %19, align 8, !tbaa !54
  %21 = load i32, ptr %4, align 4, !tbaa !14
  %22 = sext i32 %21 to i64
  %23 = getelementptr inbounds i32, ptr %20, i64 %22
  %24 = load i32, ptr %23, align 4, !tbaa !14
  br label %26

25:                                               ; preds = %12, %8, %2
  br label %26

26:                                               ; preds = %25, %18
  %27 = phi i32 [ %24, %18 ], [ 0, %25 ]
  ret i32 %27
}

; Function Attrs: inlinehint mustprogress nounwind uwtable
define linkonce_odr noundef i64 @_ZNK6icu_7724ConstrainedFieldPosition24getInt64IterationContextEv(ptr noundef nonnull align 8 dereferenceable(25) %0) #2 comdat align 2 {
  %2 = alloca ptr, align 8
  store ptr %0, ptr %2, align 8, !tbaa !41
  %3 = load ptr, ptr %2, align 8
  %4 = getelementptr inbounds nuw %"class.icu_77::ConstrainedFieldPosition", ptr %3, i32 0, i32 0
  %5 = load i64, ptr %4, align 8, !tbaa !52
  ret i64 %5
}

; Function Attrs: inlinehint mustprogress nounwind uwtable
define linkonce_odr noundef i32 @_ZNK6icu_779UVector324sizeEv(ptr noundef nonnull align 8 dereferenceable(32) %0) #2 comdat align 2 {
  %2 = alloca ptr, align 8
  store ptr %0, ptr %2, align 8, !tbaa !47
  %3 = load ptr, ptr %2, align 8
  %4 = getelementptr inbounds nuw %"class.icu_77::UVector32", ptr %3, i32 0, i32 1
  %5 = load i32, ptr %4, align 8, !tbaa !49
  ret i32 %5
}

; Function Attrs: mustprogress uwtable
define noundef signext i8 @_ZNK6icu_7739FormattedValueFieldPositionIteratorImpl12nextPositionERNS_24ConstrainedFieldPositionER10UErrorCode(ptr noundef nonnull align 8 dereferenceable(104) %0, ptr noundef nonnull align 8 dereferenceable(25) %1, ptr noundef nonnull align 4 dereferenceable(4) %2) unnamed_addr #1 align 2 {
  %4 = alloca ptr, align 8
  %5 = alloca ptr, align 8
  %6 = alloca ptr, align 8
  %7 = alloca i32, align 4
  %8 = alloca i32, align 4
  %9 = alloca i32, align 4
  %10 = alloca i32, align 4
  %11 = alloca i32, align 4
  %12 = alloca i32, align 4
  %13 = alloca i32, align 4
  store ptr %0, ptr %4, align 8, !tbaa !23
  store ptr %1, ptr %5, align 8, !tbaa !41
  store ptr %2, ptr %6, align 8, !tbaa !22
  %14 = load ptr, ptr %4, align 8
  call void @llvm.lifetime.start.p0(i64 4, ptr %7) #10
  %15 = getelementptr inbounds nuw %"class.icu_77::FormattedValueFieldPositionIteratorImpl", ptr %14, i32 0, i32 2
  %16 = call noundef i32 @_ZNK6icu_779UVector324sizeEv(ptr noundef nonnull align 8 dereferenceable(32) %15)
  %17 = sdiv i32 %16, 4
  store i32 %17, ptr %7, align 4, !tbaa !14
  call void @llvm.lifetime.start.p0(i64 4, ptr %8) #10
  %18 = load ptr, ptr %5, align 8, !tbaa !41
  %19 = call noundef i64 @_ZNK6icu_7724ConstrainedFieldPosition24getInt64IterationContextEv(ptr noundef nonnull align 8 dereferenceable(25) %18)
  %20 = trunc i64 %19 to i32
  store i32 %20, ptr %8, align 4, !tbaa !14
  br label %21

21:                                               ; preds = %60, %3
  %22 = load i32, ptr %8, align 4, !tbaa !14
  %23 = load i32, ptr %7, align 4, !tbaa !14
  %24 = icmp slt i32 %22, %23
  br i1 %24, label %25, label %63

25:                                               ; preds = %21
  call void @llvm.lifetime.start.p0(i64 4, ptr %9) #10
  %26 = getelementptr inbounds nuw %"class.icu_77::FormattedValueFieldPositionIteratorImpl", ptr %14, i32 0, i32 2
  %27 = load i32, ptr %8, align 4, !tbaa !14
  %28 = mul nsw i32 %27, 4
  %29 = call noundef i32 @_ZNK6icu_779UVector3210elementAtiEi(ptr noundef nonnull align 8 dereferenceable(32) %26, i32 noundef %28)
  store i32 %29, ptr %9, align 4, !tbaa !43
  call void @llvm.lifetime.start.p0(i64 4, ptr %10) #10
  %30 = getelementptr inbounds nuw %"class.icu_77::FormattedValueFieldPositionIteratorImpl", ptr %14, i32 0, i32 2
  %31 = load i32, ptr %8, align 4, !tbaa !14
  %32 = mul nsw i32 %31, 4
  %33 = add nsw i32 %32, 1
  %34 = call noundef i32 @_ZNK6icu_779UVector3210elementAtiEi(ptr noundef nonnull align 8 dereferenceable(32) %30, i32 noundef %33)
  store i32 %34, ptr %10, align 4, !tbaa !14
  %35 = load ptr, ptr %5, align 8, !tbaa !41
  %36 = load i32, ptr %9, align 4, !tbaa !43
  %37 = load i32, ptr %10, align 4, !tbaa !14
  %38 = call noundef signext i8 @_ZNK6icu_7724ConstrainedFieldPosition12matchesFieldEii(ptr noundef nonnull align 8 dereferenceable(25) %35, i32 noundef %36, i32 noundef %37)
  %39 = icmp ne i8 %38, 0
  br i1 %39, label %40, label %56

40:                                               ; preds = %25
  call void @llvm.lifetime.start.p0(i64 4, ptr %11) #10
  %41 = getelementptr inbounds nuw %"class.icu_77::FormattedValueFieldPositionIteratorImpl", ptr %14, i32 0, i32 2
  %42 = load i32, ptr %8, align 4, !tbaa !14
  %43 = mul nsw i32 %42, 4
  %44 = add nsw i32 %43, 2
  %45 = call noundef i32 @_ZNK6icu_779UVector3210elementAtiEi(ptr noundef nonnull align 8 dereferenceable(32) %41, i32 noundef %44)
  store i32 %45, ptr %11, align 4, !tbaa !14
  call void @llvm.lifetime.start.p0(i64 4, ptr %12) #10
  %46 = getelementptr inbounds nuw %"class.icu_77::FormattedValueFieldPositionIteratorImpl", ptr %14, i32 0, i32 2
  %47 = load i32, ptr %8, align 4, !tbaa !14
  %48 = mul nsw i32 %47, 4
  %49 = add nsw i32 %48, 3
  %50 = call noundef i32 @_ZNK6icu_779UVector3210elementAtiEi(ptr noundef nonnull align 8 dereferenceable(32) %46, i32 noundef %49)
  store i32 %50, ptr %12, align 4, !tbaa !14
  %51 = load ptr, ptr %5, align 8, !tbaa !41
  %52 = load i32, ptr %9, align 4, !tbaa !43
  %53 = load i32, ptr %10, align 4, !tbaa !14
  %54 = load i32, ptr %11, align 4, !tbaa !14
  %55 = load i32, ptr %12, align 4, !tbaa !14
  call void @_ZN6icu_7724ConstrainedFieldPosition8setStateEiiii(ptr noundef nonnull align 8 dereferenceable(25) %51, i32 noundef %52, i32 noundef %53, i32 noundef %54, i32 noundef %55)
  store i32 2, ptr %13, align 4
  call void @llvm.lifetime.end.p0(i64 4, ptr %12) #10
  call void @llvm.lifetime.end.p0(i64 4, ptr %11) #10
  br label %57

56:                                               ; preds = %25
  store i32 0, ptr %13, align 4
  br label %57

57:                                               ; preds = %56, %40
  call void @llvm.lifetime.end.p0(i64 4, ptr %10) #10
  call void @llvm.lifetime.end.p0(i64 4, ptr %9) #10
  %58 = load i32, ptr %13, align 4
  switch i32 %58, label %80 [
    i32 0, label %59
    i32 2, label %63
  ]

59:                                               ; preds = %57
  br label %60

60:                                               ; preds = %59
  %61 = load i32, ptr %8, align 4, !tbaa !14
  %62 = add nsw i32 %61, 1
  store i32 %62, ptr %8, align 4, !tbaa !14
  br label %21, !llvm.loop !45

63:                                               ; preds = %57, %21
  %64 = load ptr, ptr %5, align 8, !tbaa !41
  %65 = load i32, ptr %8, align 4, !tbaa !14
  %66 = load i32, ptr %7, align 4, !tbaa !14
  %67 = icmp eq i32 %65, %66
  br i1 %67, label %68, label %70

68:                                               ; preds = %63
  %69 = load i32, ptr %8, align 4, !tbaa !14
  br label %73

70:                                               ; preds = %63
  %71 = load i32, ptr %8, align 4, !tbaa !14
  %72 = add nsw i32 %71, 1
  br label %73

73:                                               ; preds = %70, %68
  %74 = phi i32 [ %69, %68 ], [ %72, %70 ]
  %75 = sext i32 %74 to i64
  call void @_ZN6icu_7724ConstrainedFieldPosition24setInt64IterationContextEl(ptr noundef nonnull align 8 dereferenceable(25) %64, i64 noundef %75)
  %76 = load i32, ptr %8, align 4, !tbaa !14
  %77 = load i32, ptr %7, align 4, !tbaa !14
  %78 = icmp slt i32 %76, %77
  %79 = zext i1 %78 to i8
  store i32 1, ptr %13, align 4
  call void @llvm.lifetime.end.p0(i64 4, ptr %8) #10
  call void @llvm.lifetime.end.p0(i64 4, ptr %7) #10
  ret i8 %79

80:                                               ; preds = %57
  unreachable
}