; Function Attrs: mustprogress uwtable
define noundef signext range(i8 0, 2) i8 @_ZNK6icu_7739FormattedValueFieldPositionIteratorImpl12nextPositionERNS_24ConstrainedFieldPositionER10UErrorCode(ptr noundef nonnull readonly align 8 captures(none) dereferenceable(104) %0, ptr noundef nonnull align 8 dereferenceable(25) %1, ptr nonnull readnone align 4 captures(none) %2) unnamed_addr #1 align 2 {
  %4 = getelementptr inbounds nuw i8, ptr %0, i64 80
  %5 = load i32, ptr %4, align 8, !tbaa !22
  %6 = sdiv i32 %5, 4
  %7 = load i64, ptr %1, align 8, !tbaa !26
  %8 = trunc i64 %7 to i32
  %9 = icmp sgt i32 %6, %8
  br i1 %9, label %.lr.ph, label %.loopexit

.lr.ph:                                           ; preds = %3
  %10 = getelementptr inbounds nuw i8, ptr %0, i64 96
  br label %11

11:                                               ; preds = %.lr.ph, %50
  %.02439 = phi i32 [ %8, %.lr.ph ], [ %51, %50 ]
  %12 = shl nsw i32 %.02439, 2
  %13 = icmp sgt i32 %.02439, -1
  %14 = load i32, ptr %4, align 8
  %15 = icmp sgt i32 %14, %12
  %or.cond.i = select i1 %13, i1 %15, i1 false
  br i1 %or.cond.i, label %16, label %_ZNK6icu_779UVector3210elementAtiEi.exit

16:                                               ; preds = %11
  %17 = load ptr, ptr %10, align 8, !tbaa !29
  %18 = zext nneg i32 %12 to i64
  %19 = getelementptr inbounds nuw i32, ptr %17, i64 %18
  %20 = load i32, ptr %19, align 4, !tbaa !12
  br label %_ZNK6icu_779UVector3210elementAtiEi.exit

_ZNK6icu_779UVector3210elementAtiEi.exit:         ; preds = %11, %16
  %21 = phi i32 [ %20, %16 ], [ 0, %11 ]
  %22 = or disjoint i32 %12, 1
  %23 = icmp sgt i32 %14, %22
  %or.cond.i25 = select i1 %13, i1 %23, i1 false
  br i1 %or.cond.i25, label %24, label %_ZNK6icu_779UVector3210elementAtiEi.exit26

24:                                               ; preds = %_ZNK6icu_779UVector3210elementAtiEi.exit
  %25 = load ptr, ptr %10, align 8, !tbaa !29
  %26 = zext nneg i32 %22 to i64
  %27 = getelementptr inbounds nuw i32, ptr %25, i64 %26
  %28 = load i32, ptr %27, align 4, !tbaa !12
  br label %_ZNK6icu_779UVector3210elementAtiEi.exit26

_ZNK6icu_779UVector3210elementAtiEi.exit26:       ; preds = %_ZNK6icu_779UVector3210elementAtiEi.exit, %24
  %29 = phi i32 [ %28, %24 ], [ 0, %_ZNK6icu_779UVector3210elementAtiEi.exit ]
  %30 = tail call noundef signext i8 @_ZNK6icu_7724ConstrainedFieldPosition12matchesFieldEii(ptr noundef nonnull align 8 dereferenceable(25) %1, i32 noundef %21, i32 noundef %29)
  %.not = icmp eq i8 %30, 0
  br i1 %.not, label %50, label %31

31:                                               ; preds = %_ZNK6icu_779UVector3210elementAtiEi.exit26
  %32 = or disjoint i32 %12, 2
  %33 = load i32, ptr %4, align 8
  %34 = icmp sgt i32 %33, %32
  %or.cond.i27 = select i1 %13, i1 %34, i1 false
  br i1 %or.cond.i27, label %35, label %_ZNK6icu_779UVector3210elementAtiEi.exit28

35:                                               ; preds = %31
  %36 = load ptr, ptr %10, align 8, !tbaa !29
  %37 = zext nneg i32 %32 to i64
  %38 = getelementptr inbounds nuw i32, ptr %36, i64 %37
  %39 = load i32, ptr %38, align 4, !tbaa !12
  br label %_ZNK6icu_779UVector3210elementAtiEi.exit28

_ZNK6icu_779UVector3210elementAtiEi.exit28:       ; preds = %31, %35
  %40 = phi i32 [ %39, %35 ], [ 0, %31 ]
  %41 = or disjoint i32 %12, 3
  %42 = icmp sgt i32 %33, %41
  %or.cond.i29 = select i1 %13, i1 %42, i1 false
  br i1 %or.cond.i29, label %43, label %48

43:                                               ; preds = %_ZNK6icu_779UVector3210elementAtiEi.exit28
  %44 = load ptr, ptr %10, align 8, !tbaa !29
  %45 = zext nneg i32 %41 to i64
  %46 = getelementptr inbounds nuw i32, ptr %44, i64 %45
  %47 = load i32, ptr %46, align 4, !tbaa !12
  br label %48

48:                                               ; preds = %43, %_ZNK6icu_779UVector3210elementAtiEi.exit28
  %49 = phi i32 [ %47, %43 ], [ 0, %_ZNK6icu_779UVector3210elementAtiEi.exit28 ]
  tail call void @_ZN6icu_7724ConstrainedFieldPosition8setStateEiiii(ptr noundef nonnull align 8 dereferenceable(25) %1, i32 noundef %21, i32 noundef %29, i32 noundef %40, i32 noundef %49)
  br label %.loopexit

50:                                               ; preds = %_ZNK6icu_779UVector3210elementAtiEi.exit26
  %51 = add i32 %.02439, 1
  %exitcond.not = icmp eq i32 %51, %6
  br i1 %exitcond.not, label %.loopexit, label %11, !llvm.loop !30

.loopexit:                                        ; preds = %50, %3, %48
  %.02435 = phi i32 [ %.02439, %48 ], [ %8, %3 ], [ %6, %50 ]
  %52 = phi i8 [ 1, %48 ], [ 0, %3 ], [ 0, %50 ]
  %53 = icmp ne i32 %.02435, %6
  %54 = zext i1 %53 to i32
  %55 = add nsw i32 %.02435, %54
  %56 = sext i32 %55 to i64
  tail call void @_ZN6icu_7724ConstrainedFieldPosition24setInt64IterationContextEl(ptr noundef nonnull align 8 dereferenceable(25) %1, i64 noundef %56)
  ret i8 %52
}